; ModuleID = '848.c'
source_filename = "848.c"
target datalayout = "e-m:e-p270:32:32-p271:32:32-p272:64:64-i64:64-f80:128-n8:16:32:64-S128"
target triple = "x86_64-pc-linux-gnu"

%struct.stu = type { [40 x i8], [40 x i8], [10 x i8], [10 x i8], [40 x i8], [40 x i8], %struct.stu*, %struct.stu* }

@.str = private unnamed_addr constant [3 x i8] c"%s\00", align 1
@.str.1 = private unnamed_addr constant [4 x i8] c"end\00", align 1
@tail = common dso_local global %struct.stu* null, align 8
@.str.2 = private unnamed_addr constant [15 x i8] c"%s %s %s %s %s\00", align 1
@.str.3 = private unnamed_addr constant [19 x i8] c"%s %s %s %s %s %s\0A\00", align 1
@n = common dso_local global i32 0, align 4

; Function Attrs: noinline nounwind uwtable
define dso_local %struct.stu* @create() #0 {
  %1 = alloca i32, align 4
  %2 = alloca %struct.stu*, align 8
  %3 = alloca %struct.stu*, align 8
  %4 = alloca %struct.stu*, align 8
  %5 = call noalias i8* @malloc(i64 200) #4
  %6 = bitcast i8* %5 to %struct.stu*
  store %struct.stu* %6, %struct.stu** %2, align 8
  %7 = load %struct.stu*, %struct.stu** %2, align 8
  %8 = getelementptr inbounds %struct.stu, %struct.stu* %7, i32 0, i32 6
  store %struct.stu* null, %struct.stu** %8, align 8
  %9 = load %struct.stu*, %struct.stu** %2, align 8
  %10 = getelementptr inbounds %struct.stu, %struct.stu* %9, i32 0, i32 7
  store %struct.stu* null, %struct.stu** %10, align 8
  %11 = load %struct.stu*, %struct.stu** %2, align 8
  store %struct.stu* %11, %struct.stu** %4, align 8
  br label %12

12:                                               ; preds = %0, %58
  %13 = call noalias i8* @malloc(i64 200) #4
  %14 = bitcast i8* %13 to %struct.stu*
  store %struct.stu* %14, %struct.stu** %3, align 8
  %15 = load %struct.stu*, %struct.stu** %3, align 8
  %16 = getelementptr inbounds %struct.stu, %struct.stu* %15, i32 0, i32 0
  %17 = getelementptr inbounds [40 x i8], [40 x i8]* %16, i64 0, i64 0
  %18 = call i32 (i8*, ...) @__isoc99_scanf(i8* getelementptr inbounds ([3 x i8], [3 x i8]* @.str, i64 0, i64 0), i8* %17)
  %19 = load %struct.stu*, %struct.stu** %3, align 8
  %20 = getelementptr inbounds %struct.stu, %struct.stu* %19, i32 0, i32 0
  %21 = getelementptr inbounds [40 x i8], [40 x i8]* %20, i64 0, i64 0
  %22 = call i32 @strcmp(i8* %21, i8* getelementptr inbounds ([4 x i8], [4 x i8]* @.str.1, i64 0, i64 0)) #5
  %23 = icmp eq i32 %22, 0
  br i1 %23, label %24, label %34

24:                                               ; preds = %12
  %25 = load %struct.stu*, %struct.stu** %3, align 8
  %26 = getelementptr inbounds %struct.stu, %struct.stu* %25, i32 0, i32 6
  store %struct.stu* null, %struct.stu** %26, align 8
  %27 = load %struct.stu*, %struct.stu** %3, align 8
  %28 = load %struct.stu*, %struct.stu** %4, align 8
  %29 = getelementptr inbounds %struct.stu, %struct.stu* %28, i32 0, i32 6
  store %struct.stu* %27, %struct.stu** %29, align 8
  %30 = load %struct.stu*, %struct.stu** %4, align 8
  %31 = load %struct.stu*, %struct.stu** %3, align 8
  %32 = getelementptr inbounds %struct.stu, %struct.stu* %31, i32 0, i32 7
  store %struct.stu* %30, %struct.stu** %32, align 8
  %33 = load %struct.stu*, %struct.stu** %3, align 8
  store %struct.stu* %33, %struct.stu** @tail, align 8
  br label %59

34:                                               ; preds = %12
  %35 = load %struct.stu*, %struct.stu** %3, align 8
  %36 = getelementptr inbounds %struct.stu, %struct.stu* %35, i32 0, i32 1
  %37 = getelementptr inbounds [40 x i8], [40 x i8]* %36, i64 0, i64 0
  %38 = load %struct.stu*, %struct.stu** %3, align 8
  %39 = getelementptr inbounds %struct.stu, %struct.stu* %38, i32 0, i32 2
  %40 = load %struct.stu*, %struct.stu** %3, align 8
  %41 = getelementptr inbounds %struct.stu, %struct.stu* %40, i32 0, i32 3
  %42 = load %struct.stu*, %struct.stu** %3, align 8
  %43 = getelementptr inbounds %struct.stu, %struct.stu* %42, i32 0, i32 4
  %44 = getelementptr inbounds [40 x i8], [40 x i8]* %43, i64 0, i64 0
  %45 = load %struct.stu*, %struct.stu** %3, align 8
  %46 = getelementptr inbounds %struct.stu, %struct.stu* %45, i32 0, i32 5
  %47 = getelementptr inbounds [40 x i8], [40 x i8]* %46, i64 0, i64 0
  %48 = call i32 (i8*, ...) @__isoc99_scanf(i8* getelementptr inbounds ([15 x i8], [15 x i8]* @.str.2, i64 0, i64 0), i8* %37, [10 x i8]* %39, [10 x i8]* %41, i8* %44, i8* %47)
  %49 = load %struct.stu*, %struct.stu** %3, align 8
  %50 = getelementptr inbounds %struct.stu, %struct.stu* %49, i32 0, i32 6
  store %struct.stu* null, %struct.stu** %50, align 8
  %51 = load %struct.stu*, %struct.stu** %3, align 8
  %52 = load %struct.stu*, %struct.stu** %4, align 8
  %53 = getelementptr inbounds %struct.stu, %struct.stu* %52, i32 0, i32 6
  store %struct.stu* %51, %struct.stu** %53, align 8
  %54 = load %struct.stu*, %struct.stu** %4, align 8
  %55 = load %struct.stu*, %struct.stu** %3, align 8
  %56 = getelementptr inbounds %struct.stu, %struct.stu* %55, i32 0, i32 7
  store %struct.stu* %54, %struct.stu** %56, align 8
  %57 = load %struct.stu*, %struct.stu** %3, align 8
  store %struct.stu* %57, %struct.stu** %4, align 8
  br label %58

58:                                               ; preds = %34
  br label %12

59:                                               ; preds = %24
  %60 = load %struct.stu*, %struct.stu** %2, align 8
  ret %struct.stu* %60
}

; Function Attrs: nounwind
declare dso_local noalias i8* @malloc(i64) #1

declare dso_local i32 @__isoc99_scanf(i8*, ...) #2

; Function Attrs: nounwind readonly
declare dso_local i32 @strcmp(i8*, i8*) #3

; Function Attrs: noinline nounwind uwtable
define dso_local void @bwprint(%struct.stu* %0) #0 {
  %2 = alloca %struct.stu*, align 8
  %3 = alloca %struct.stu*, align 8
  store %struct.stu* %0, %struct.stu** %2, align 8
  %4 = load %struct.stu*, %struct.stu** %2, align 8
  %5 = getelementptr inbounds %struct.stu, %struct.stu* %4, i32 0, i32 7
  %6 = load %struct.stu*, %struct.stu** %5, align 8
  store %struct.stu* %6, %struct.stu** %3, align 8
  br label %7

7:                                                ; preds = %12, %1
  %8 = load %struct.stu*, %struct.stu** %3, align 8
  %9 = getelementptr inbounds %struct.stu, %struct.stu* %8, i32 0, i32 7
  %10 = load %struct.stu*, %struct.stu** %9, align 8
  %11 = icmp ne %struct.stu* %10, null
  br i1 %11, label %12, label %35

12:                                               ; preds = %7
  %13 = load %struct.stu*, %struct.stu** %3, align 8
  %14 = getelementptr inbounds %struct.stu, %struct.stu* %13, i32 0, i32 0
  %15 = getelementptr inbounds [40 x i8], [40 x i8]* %14, i64 0, i64 0
  %16 = load %struct.stu*, %struct.stu** %3, align 8
  %17 = getelementptr inbounds %struct.stu, %struct.stu* %16, i32 0, i32 1
  %18 = getelementptr inbounds [40 x i8], [40 x i8]* %17, i64 0, i64 0
  %19 = load %struct.stu*, %struct.stu** %3, align 8
  %20 = getelementptr inbounds %struct.stu, %struct.stu* %19, i32 0, i32 2
  %21 = getelementptr inbounds [10 x i8], [10 x i8]* %20, i64 0, i64 0
  %22 = load %struct.stu*, %struct.stu** %3, align 8
  %23 = getelementptr inbounds %struct.stu, %struct.stu* %22, i32 0, i32 3
  %24 = getelementptr inbounds [10 x i8], [10 x i8]* %23, i64 0, i64 0
  %25 = load %struct.stu*, %struct.stu** %3, align 8
  %26 = getelementptr inbounds %struct.stu, %struct.stu* %25, i32 0, i32 4
  %27 = getelementptr inbounds [40 x i8], [40 x i8]* %26, i64 0, i64 0
  %28 = load %struct.stu*, %struct.stu** %3, align 8
  %29 = getelementptr inbounds %struct.stu, %struct.stu* %28, i32 0, i32 5
  %30 = getelementptr inbounds [40 x i8], [40 x i8]* %29, i64 0, i64 0
  %31 = call i32 (i8*, ...) @printf(i8* getelementptr inbounds ([19 x i8], [19 x i8]* @.str.3, i64 0, i64 0), i8* %15, i8* %18, i8* %21, i8* %24, i8* %27, i8* %30)
  %32 = load %struct.stu*, %struct.stu** %3, align 8
  %33 = getelementptr inbounds %struct.stu, %struct.stu* %32, i32 0, i32 7
  %34 = load %struct.stu*, %struct.stu** %33, align 8
  store %struct.stu* %34, %struct.stu** %3, align 8
  br label %7

35:                                               ; preds = %7
  ret void
}

declare dso_local i32 @printf(i8*, ...) #2

; Function Attrs: noinline nounwind uwtable
define dso_local i32 @main() #0 {
  %1 = alloca i32, align 4
  %2 = alloca %struct.stu*, align 8
  %3 = alloca %struct.stu*, align 8
  store i32 0, i32* %1, align 4
  %4 = call %struct.stu* @create()
  store %struct.stu* %4, %struct.stu** %3, align 8
  %5 = load %struct.stu*, %struct.stu** @tail, align 8
  call void @bwprint(%struct.stu* %5)
  ret i32 0
}


!llvm.module.flags = !{!0}
!llvm.ident = !{!1}

!0 = !{i32 1, !"wchar_size", i32 4}
!1 = !{!"clang version 10.0.0-4ubuntu1 "}
